target datalayout = "e-m:e-p270:32:32-p271:32:32-p272:64:64-i64:64-i128:128-f80:128-n8:16:32:64-S128"
target triple = "x86_64-pc-linux-gnu"

%struct.Vmem = type { ptr, i64, i64 }
%struct.Expr_ = type { ptr, %union.SourceSpan, i16, %union.anon.29 }
%union.SourceSpan = type { i64 }
%union.anon.29 = type { %struct.ExprAnySwitch }
%struct.ExprAnySwitch = type { i8, %union.anon.31 }
%union.anon.31 = type { %struct.anon.32 }
%struct.anon.32 = type { ptr, %union.SourceSpan, ptr }
%struct.Decl_ = type { ptr, ptr, %union.SourceSpan, i64, %union.anon, i32, %union.anon.0, i64, ptr, ptr, ptr, %union.anon.1 }
%union.anon = type { ptr }
%union.anon.0 = type { i16 }
%union.anon.1 = type { %struct.FuncDecl }
%struct.FuncDecl = type { i32, [4 x i8], %struct.Signature_, i32, i32, %union.anon.8 }
%struct.Signature_ = type <{ %struct.CalleeAttributes, i16, i8, i32, i32, [4 x i8], ptr }>
%struct.CalleeAttributes = type { i8 }
%union.anon.8 = type { %struct.anon.9 }
%struct.anon.9 = type { i16, %union.anon.10 }
%union.anon.10 = type { ptr }
%struct.ExprConst = type { i16, %union.anon.38 }
%union.anon.38 = type { %struct.Int }
%struct.Int = type { %struct.Int128_, i32 }
%struct.Int128_ = type { i64, i64 }
%struct.ExprCast = type { i8, i32, i32 }

@expr_arena = external global %struct.Vmem, align 8

; Function Attrs: nounwind uwtable
define internal ptr @expr_calloc() #0 {
  %1 = call ptr @vmem_alloc(ptr noundef @expr_arena, i64 noundef 56)
  ret ptr %1
}

; Function Attrs: nounwind uwtable
define internal i32 @exprid(ptr noundef %0) #0 {
  %2 = alloca ptr, align 8
  store ptr %0, ptr %2, align 8
  %3 = load ptr, ptr %2, align 8
  %4 = load ptr, ptr @expr_arena, align 8
  %5 = ptrtoint ptr %3 to i64
  %6 = ptrtoint ptr %4 to i64
  %7 = sub i64 %5, %6
  %8 = sdiv exact i64 %7, 56
  %9 = trunc i64 %8 to i32
  ret i32 %9
}

; Function Attrs: nounwind uwtable
define internal ptr @expr_copy(ptr noundef %0) #0 {
  %2 = alloca ptr, align 8
  %3 = alloca ptr, align 8
  store ptr %0, ptr %2, align 8
  %4 = call ptr @expr_calloc()
  store ptr %4, ptr %3, align 8
  %5 = load ptr, ptr %3, align 8
  %6 = load ptr, ptr %2, align 8
  call void @llvm.memcpy.p0.p0.i64(ptr align 8 %5, ptr align 8 %6, i64 56, i1 false)
  %7 = load ptr, ptr %3, align 8
  ret ptr %7
}

; Function Attrs: nounwind uwtable
define internal zeroext i1 @insert_runtime_cast(ptr noundef %0, i32 noundef %1, ptr noundef %2) #0 {
  %4 = alloca ptr, align 8
  %5 = alloca i32, align 4
  %6 = alloca ptr, align 8
  %7 = alloca ptr, align 8
  store ptr %0, ptr %4, align 8
  store i32 %1, ptr %5, align 4
  store ptr %2, ptr %6, align 8
  %8 = load ptr, ptr %4, align 8
  %9 = call ptr @expr_copy(ptr noundef %8)
  store ptr %9, ptr %7, align 8
  %10 = load ptr, ptr %4, align 8
  %11 = getelementptr inbounds %struct.Expr_, ptr %10, i32 0, i32 2
  %12 = load i16, ptr %11, align 8
  %13 = and i16 %12, -256
  %14 = or i16 %13, 9
  store i16 %14, ptr %11, align 8
  %15 = load i32, ptr %5, align 4
  %16 = load ptr, ptr %4, align 8
  %17 = getelementptr inbounds %struct.Expr_, ptr %16, i32 0, i32 3
  %18 = trunc i32 %15 to i8
  store i8 %18, ptr %17, align 8
  %19 = load ptr, ptr %7, align 8
  %20 = call i32 @exprid(ptr noundef %19)
  %21 = load ptr, ptr %4, align 8
  %22 = getelementptr inbounds %struct.Expr_, ptr %21, i32 0, i32 3
  %23 = getelementptr inbounds %struct.ExprCast, ptr %22, i32 0, i32 1
  store i32 %20, ptr %23, align 4
  %24 = load ptr, ptr %4, align 8
  %25 = getelementptr inbounds %struct.Expr_, ptr %24, i32 0, i32 3
  %26 = getelementptr inbounds %struct.ExprCast, ptr %25, i32 0, i32 2
  store i32 0, ptr %26, align 8
  %27 = load ptr, ptr %6, align 8
  %28 = load ptr, ptr %4, align 8
  %29 = getelementptr inbounds %struct.Expr_, ptr %28, i32 0, i32 0
  store ptr %27, ptr %29, align 8
  ret i1 true
}

; Function Attrs: nounwind uwtable
define internal void @cast_anyfault_to_fault(ptr noundef %0, ptr noundef %1, ptr noundef %2) #0 {
  %4 = alloca ptr, align 8
  %5 = alloca i1, align 1
  %6 = alloca ptr, align 8
  %7 = alloca i32, align 4
  %8 = alloca ptr, align 8
  %9 = alloca ptr, align 8
  %10 = alloca ptr, align 8
  %11 = alloca ptr, align 8
  %12 = alloca ptr, align 8
  store ptr %0, ptr %9, align 8
  store ptr %1, ptr %10, align 8
  store ptr %2, ptr %11, align 8
  %13 = load ptr, ptr %10, align 8
  %14 = load ptr, ptr %11, align 8
  store ptr %13, ptr %6, align 8
  store i32 15, ptr %7, align 4
  store ptr %14, ptr %8, align 8
  %15 = load ptr, ptr %6, align 8
  store ptr %15, ptr %4, align 8
  %16 = load ptr, ptr %4, align 8
  %17 = getelementptr inbounds %struct.Expr_, ptr %16, i32 0, i32 2
  %18 = load i16, ptr %17, align 8
  %19 = and i16 %18, 255
  %20 = zext i16 %19 to i32
  %21 = icmp eq i32 %20, 14
  br i1 %21, label %22, label %30

22:                                               ; preds = %3
  %23 = load ptr, ptr %6, align 8
  %24 = getelementptr inbounds %struct.Expr_, ptr %23, i32 0, i32 3
  %25 = load i16, ptr %24, align 8
  %26 = and i16 %25, 255
  %27 = zext i16 %26 to i32
  %28 = icmp ne i32 %27, 8
  br i1 %28, label %29, label %30

29:                                               ; preds = %22
  store i1 false, ptr %5, align 1
  br label %35

30:                                               ; preds = %22, %3
  %31 = load ptr, ptr %6, align 8
  %32 = load i32, ptr %7, align 4
  %33 = load ptr, ptr %8, align 8
  %34 = call zeroext i1 @insert_runtime_cast(ptr noundef %31, i32 noundef %32, ptr noundef %33)
  store i1 %34, ptr %5, align 1
  br label %35

35:                                               ; preds = %30, %29
  %36 = load i1, ptr %5, align 1
  br i1 %36, label %37, label %45

37:                                               ; preds = %35
  %38 = load ptr, ptr %10, align 8
  %39 = getelementptr inbounds %struct.Expr_, ptr %38, i32 0, i32 3
  %40 = load i16, ptr %39, align 8
  %41 = and i16 %40, 255
  %42 = zext i16 %41 to i32
  %43 = icmp eq i32 %42, 4
  br i1 %43, label %44, label %45

44:                                               ; preds = %37
  br label %68

45:                                               ; preds = %37, %35
  %46 = load ptr, ptr %10, align 8
  %47 = getelementptr inbounds %struct.Expr_, ptr %46, i32 0, i32 3
  %48 = getelementptr inbounds %struct.ExprConst, ptr %47, i32 0, i32 1
  %49 = load ptr, ptr %48, align 8
  store ptr %49, ptr %12, align 8
  %50 = load ptr, ptr %12, align 8
  %51 = getelementptr inbounds %struct.Decl_, ptr %50, i32 0, i32 10
  %52 = load ptr, ptr %51, align 8
  %53 = load ptr, ptr %11, align 8
  %54 = icmp ne ptr %52, %53
  br i1 %54, label %55, label %64

55:                                               ; preds = %45
  %56 = load ptr, ptr %10, align 8
  %57 = getelementptr inbounds %struct.Expr_, ptr %56, i32 0, i32 3
  %58 = load i16, ptr %57, align 8
  %59 = and i16 %58, -256
  %60 = or i16 %59, 7
  store i16 %60, ptr %57, align 8
  %61 = load ptr, ptr %10, align 8
  %62 = getelementptr inbounds %struct.Expr_, ptr %61, i32 0, i32 3
  %63 = getelementptr inbounds %struct.ExprConst, ptr %62, i32 0, i32 1
  store i64 0, ptr %63, align 8
  br label %64

64:                                               ; preds = %55, %45
  %65 = load ptr, ptr %11, align 8
  %66 = load ptr, ptr %10, align 8
  %67 = getelementptr inbounds %struct.Expr_, ptr %66, i32 0, i32 0
  store ptr %65, ptr %67, align 8
  br label %68

68:                                               ; preds = %64, %44
  ret void
}