; Function Attrs: nounwind uwtable
define internal void @cast_anyfault_to_fault(ptr nocapture readnone %0, ptr nocapture noundef %1, ptr noundef %2) #0 {
  %4 = getelementptr inbounds i8, ptr %1, i64 16
  %5 = load i16, ptr %4, align 8
  %6 = and i16 %5, 255
  %7 = icmp eq i16 %6, 14
  br i1 %7, label %8, label %.critedge

8:                                                ; preds = %3
  %9 = getelementptr inbounds i8, ptr %1, i64 24
  %10 = load i16, ptr %9, align 8
  %11 = and i16 %10, 255
  %.not = icmp eq i16 %11, 8
  br i1 %.not, label %.critedge, label %28

.critedge:                                        ; preds = %8, %3
  %12 = tail call noundef ptr @vmem_alloc(ptr noundef nonnull @expr_arena, i64 noundef 56) #10
  tail call void @llvm.memcpy.p0.p0.i64(ptr noundef nonnull align 8 dereferenceable(56) %12, ptr noundef nonnull align 8 dereferenceable(56) %1, i64 56, i1 false)
  %13 = load i16, ptr %4, align 8
  %14 = and i16 %13, -256
  %15 = or disjoint i16 %14, 9
  store i16 %15, ptr %4, align 8
  %16 = getelementptr inbounds i8, ptr %1, i64 24
  store i8 15, ptr %16, align 8
  %17 = load ptr, ptr @expr_arena, align 8
  %18 = ptrtoint ptr %12 to i64
  %19 = ptrtoint ptr %17 to i64
  %20 = sub i64 %18, %19
  %21 = sdiv exact i64 %20, 56
  %22 = trunc i64 %21 to i32
  %23 = getelementptr inbounds i8, ptr %1, i64 28
  store i32 %22, ptr %23, align 4
  %24 = getelementptr inbounds i8, ptr %1, i64 32
  store i32 0, ptr %24, align 8
  store ptr %2, ptr %1, align 8
  %25 = load i16, ptr %16, align 8
  %26 = and i16 %25, 255
  %27 = icmp eq i16 %26, 4
  br i1 %27, label %39, label %28

28:                                               ; preds = %8, %.critedge
  %29 = phi i16 [ %10, %8 ], [ %25, %.critedge ]
  %30 = getelementptr inbounds i8, ptr %1, i64 32
  %31 = load ptr, ptr %30, align 8
  %32 = getelementptr inbounds i8, ptr %31, i64 72
  %33 = load ptr, ptr %32, align 8
  %.not16 = icmp eq ptr %33, %2
  br i1 %.not16, label %38, label %34

34:                                               ; preds = %28
  %35 = getelementptr inbounds i8, ptr %1, i64 24
  %36 = and i16 %29, -256
  %37 = or disjoint i16 %36, 7
  store i16 %37, ptr %35, align 8
  store i64 0, ptr %30, align 8
  br label %38

38:                                               ; preds = %34, %28
  store ptr %2, ptr %1, align 8
  br label %39

39:                                               ; preds = %.critedge, %38
  ret void
}